target datalayout = "e-m:e-p270:32:32-p271:32:32-p272:64:64-i64:64-i128:128-f80:128-n8:16:32:64-S128"
target triple = "x86_64-unknown-linux-gnu"

; Function Attrs: mustprogress nounwind uwtable
define internal noundef i32 @_ZL13get_num_1bitsj(i32 noundef %v) #5 {
entry:
  %v.addr = alloca i32, align 4
  store i32 %v, ptr %v.addr, align 4
  %0 = load i32, ptr %v.addr, align 4
  %1 = call i32 @llvm.ctpop.i32(i32 %0)
  ret i32 %1
}

; Function Attrs: mustprogress nounwind uwtable
define linkonce_odr hidden noundef i32 @_Z17next_power_of_twoj(i32 noundef %v) #5 comdat {
entry:
  %v.addr = alloca i32, align 4
  store i32 %v, ptr %v.addr, align 4
  %0 = load i32, ptr %v.addr, align 4
  %dec = add i32 %0, -1
  store i32 %dec, ptr %v.addr, align 4
  %1 = load i32, ptr %v.addr, align 4
  %shr = lshr i32 %1, 1
  %2 = load i32, ptr %v.addr, align 4
  %or = or i32 %2, %shr
  store i32 %or, ptr %v.addr, align 4
  %3 = load i32, ptr %v.addr, align 4
  %shr1 = lshr i32 %3, 2
  %4 = load i32, ptr %v.addr, align 4
  %or2 = or i32 %4, %shr1
  store i32 %or2, ptr %v.addr, align 4
  %5 = load i32, ptr %v.addr, align 4
  %shr3 = lshr i32 %5, 4
  %6 = load i32, ptr %v.addr, align 4
  %or4 = or i32 %6, %shr3
  store i32 %or4, ptr %v.addr, align 4
  %7 = load i32, ptr %v.addr, align 4
  %shr5 = lshr i32 %7, 8
  %8 = load i32, ptr %v.addr, align 4
  %or6 = or i32 %8, %shr5
  store i32 %or6, ptr %v.addr, align 4
  %9 = load i32, ptr %v.addr, align 4
  %shr7 = lshr i32 %9, 16
  %10 = load i32, ptr %v.addr, align 4
  %or8 = or i32 %10, %shr7
  store i32 %or8, ptr %v.addr, align 4
  %11 = load i32, ptr %v.addr, align 4
  %inc = add i32 %11, 1
  store i32 %inc, ptr %v.addr, align 4
  %12 = load i32, ptr %v.addr, align 4
  ret i32 %12
}

; Function Attrs: mustprogress uwtable
define hidden noundef i32 @_ZN7datalog17get_domain_lengthEm(i64 noundef %dom_size) #4 {
entry:
  %dom_size.addr = alloca i64, align 8
  %length = alloca i32, align 4
  %dom_size_sm = alloca i32, align 4
  store i64 %dom_size, ptr %dom_size.addr, align 8
  store i32 0, ptr %length, align 4
  %0 = load i64, ptr %dom_size.addr, align 8
  %cmp = icmp ugt i64 %0, 4294967295
  br i1 %cmp, label %if.then, label %if.else

if.then:                                          ; preds = %entry
  %1 = load i64, ptr %dom_size.addr, align 8
  %shr = lshr i64 %1, 32
  %conv = trunc i64 %shr to i32
  store i32 %conv, ptr %dom_size_sm, align 4
  %2 = load i32, ptr %length, align 4
  %add = add i32 %2, 32
  store i32 %add, ptr %length, align 4
  %3 = load i64, ptr %dom_size.addr, align 8
  %and = and i64 %3, 4294967295
  %cmp1 = icmp ne i64 %and, 0
  br i1 %cmp1, label %land.lhs.true, label %if.end

land.lhs.true:                                    ; preds = %if.then
  %4 = load i32, ptr %dom_size_sm, align 4
  %cmp2 = icmp ne i32 %4, -1
  br i1 %cmp2, label %if.then3, label %if.end

if.then3:                                         ; preds = %land.lhs.true
  %5 = load i32, ptr %dom_size_sm, align 4
  %inc = add i32 %5, 1
  store i32 %inc, ptr %dom_size_sm, align 4
  br label %if.end

if.end:                                           ; preds = %if.then3, %land.lhs.true, %if.then
  br label %if.end5

if.else:                                          ; preds = %entry
  %6 = load i64, ptr %dom_size.addr, align 8
  %conv4 = trunc i64 %6 to i32
  store i32 %conv4, ptr %dom_size_sm, align 4
  br label %if.end5

if.end5:                                          ; preds = %if.else, %if.end
  %7 = load i32, ptr %dom_size_sm, align 4
  %cmp6 = icmp eq i32 %7, 1
  br i1 %cmp6, label %if.then7, label %if.else9

if.then7:                                         ; preds = %if.end5
  %8 = load i32, ptr %length, align 4
  %add8 = add i32 %8, 1
  store i32 %add8, ptr %length, align 4
  br label %if.end17

if.else9:                                         ; preds = %if.end5
  %9 = load i32, ptr %dom_size_sm, align 4
  %cmp10 = icmp ugt i32 %9, -2147483648
  br i1 %cmp10, label %if.then11, label %if.else13

if.then11:                                        ; preds = %if.else9
  %10 = load i32, ptr %length, align 4
  %add12 = add i32 %10, 32
  store i32 %add12, ptr %length, align 4
  br label %if.end16

if.else13:                                        ; preds = %if.else9
  %11 = load i32, ptr %dom_size_sm, align 4
  %call = call noundef i32 @_Z17next_power_of_twoj(i32 noundef %11)
  %sub = sub i32 %call, 1
  %call14 = call noundef i32 @_ZL13get_num_1bitsj(i32 noundef %sub)
  %12 = load i32, ptr %length, align 4
  %add15 = add i32 %12, %call14
  store i32 %add15, ptr %length, align 4
  br label %if.end16

if.end16:                                         ; preds = %if.else13, %if.then11
  br label %if.end17

if.end17:                                         ; preds = %if.end16, %if.then7
  %13 = load i32, ptr %length, align 4
  ret i32 %13
}