; Function Attrs: mustprogress nofree norecurse nosync nounwind willreturn memory(none) uwtable
define hidden noundef i32 @_ZN7datalog17get_domain_lengthEm(i64 noundef %dom_size) local_unnamed_addr #6 {
entry:
  %cmp = icmp ugt i64 %dom_size, 4294967295
  br i1 %cmp, label %if.then, label %if.else

if.then:                                          ; preds = %entry
  %shr = lshr i64 %dom_size, 32
  %conv = trunc i64 %shr to i32
  %and = and i64 %dom_size, 4294967295
  %cmp1 = icmp ne i64 %and, 0
  %cmp2 = icmp ne i32 %conv, -1
  %or.cond = and i1 %cmp1, %cmp2
  %inc = add nuw i32 %conv, 1
  br i1 %or.cond, label %if.else9, label %if.end5

if.else:                                          ; preds = %entry
  %conv4 = trunc i64 %dom_size to i32
  br label %if.end5

if.end5:                                          ; preds = %if.then, %if.else
  %length.0 = phi i32 [ 0, %if.else ], [ 32, %if.then ]
  %dom_size_sm.0 = phi i32 [ %conv4, %if.else ], [ %conv, %if.then ]
  %cmp6 = icmp eq i32 %dom_size_sm.0, 1
  br i1 %cmp6, label %if.then7, label %if.else9

if.then7:                                         ; preds = %if.end5
  %add8 = or disjoint i32 %length.0, 1
  br label %if.end17

if.else9:                                         ; preds = %if.then, %if.end5
  %dom_size_sm.016 = phi i32 [ %dom_size_sm.0, %if.end5 ], [ %inc, %if.then ]
  %length.015 = phi i32 [ %length.0, %if.end5 ], [ 32, %if.then ]
  %cmp10 = icmp ugt i32 %dom_size_sm.016, -2147483648
  br i1 %cmp10, label %if.then11, label %if.else13

if.then11:                                        ; preds = %if.else9
  %add12 = add nuw nsw i32 %length.015, 32
  br label %if.end17

if.else13:                                        ; preds = %if.else9
  %dec.i = add i32 %dom_size_sm.016, -1
  %shr.i = lshr i32 %dec.i, 1
  %or.i = or i32 %shr.i, %dec.i
  %shr1.i = lshr i32 %or.i, 2
  %or2.i = or i32 %shr1.i, %or.i
  %shr3.i = lshr i32 %or2.i, 4
  %or4.i = or i32 %shr3.i, %or2.i
  %shr5.i = lshr i32 %or4.i, 8
  %or6.i = or i32 %shr5.i, %or4.i
  %shr7.i = lshr i32 %or6.i, 16
  %or8.i = or i32 %shr7.i, %or6.i
  %0 = tail call noundef i32 @llvm.ctpop.i32(i32 %or8.i), !range !8
  %add15 = add nuw nsw i32 %0, %length.015
  br label %if.end17

if.end17:                                         ; preds = %if.then11, %if.else13, %if.then7
  %length.1 = phi i32 [ %add8, %if.then7 ], [ %add12, %if.then11 ], [ %add15, %if.else13 ]
  ret i32 %length.1
}